target datalayout = "e-m:e-p270:32:32-p271:32:32-p272:64:64-i64:64-i128:128-f80:128-n8:16:32:64-S128"
target triple = "x86_64-pc-linux-gnu"

%struct.pg_conn = type { ptr, ptr, ptr, ptr, ptr, ptr, ptr, ptr, ptr, ptr, ptr, ptr, ptr, ptr, ptr, ptr, ptr, ptr, ptr, ptr, ptr, ptr, ptr, ptr, ptr, ptr, ptr, ptr, ptr, ptr, ptr, ptr, ptr, ptr, ptr, ptr, ptr, ptr, ptr, ptr, ptr, ptr, ptr, i8, ptr, i32, %struct.PGNoticeHooks, ptr, i32, i32, i32, i32, i32, [6 x i8], i8, i8, i32, i8, i8, i32, i8, i32, ptr, ptr, i32, i32, ptr, ptr, ptr, ptr, ptr, i32, %struct.SockAddr, %struct.SockAddr, i32, i32, i8, i8, i8, i8, i8, i8, ptr, i8, i32, [1 x ptr], i8, i8, ptr, ptr, i32, i32, i32, i8, i8, i32, i32, ptr, i8, i64, ptr, i64, ptr, i32, i32, ptr, i32, i8, i32, i32, i32, i32, ptr, %struct.pg_prng_state, ptr, i32, i32, i32, i32, ptr, i32, i32, i32, i32, ptr, i32, ptr, i8, ptr, ptr, ptr, i32, i8, i8, i8, i8, i8, i8, i8, i8, %struct.PQExpBufferData, i32, %struct.PQExpBufferData }
%struct.PGNoticeHooks = type { ptr, ptr, ptr, ptr }
%struct.SockAddr = type { %struct.sockaddr_storage, i32 }
%struct.sockaddr_storage = type { i16, [118 x i8], i64 }
%struct.pg_prng_state = type { i64, i64 }
%struct.PQExpBufferData = type { ptr, i64, i64 }

; Function Attrs: nounwind uwtable
define i32 @pqPutMsgEnd(ptr noundef %0) #0 {
  %2 = alloca i32, align 4
  %3 = alloca ptr, align 8
  %4 = alloca i32, align 4
  %5 = alloca i32, align 4
  %6 = alloca i32, align 4
  store ptr %0, ptr %3, align 8
  %7 = load ptr, ptr %3, align 8
  %8 = getelementptr inbounds nuw %struct.pg_conn, ptr %7, i32 0, i32 122
  %9 = load i32, ptr %8, align 8
  %10 = icmp sge i32 %9, 0
  br i1 %10, label %11, label %29

11:                                               ; preds = %1
  call void @llvm.lifetime.start.p0(i64 4, ptr %4) #10
  %12 = load ptr, ptr %3, align 8
  %13 = getelementptr inbounds nuw %struct.pg_conn, ptr %12, i32 0, i32 123
  %14 = load i32, ptr %13, align 4
  %15 = load ptr, ptr %3, align 8
  %16 = getelementptr inbounds nuw %struct.pg_conn, ptr %15, i32 0, i32 122
  %17 = load i32, ptr %16, align 8
  %18 = sub i32 %14, %17
  store i32 %18, ptr %4, align 4
  %19 = load i32, ptr %4, align 4
  %20 = call i32 @llvm.bswap.i32(i32 %19)
  store i32 %20, ptr %4, align 4
  %21 = load ptr, ptr %3, align 8
  %22 = getelementptr inbounds nuw %struct.pg_conn, ptr %21, i32 0, i32 119
  %23 = load ptr, ptr %22, align 8
  %24 = load ptr, ptr %3, align 8
  %25 = getelementptr inbounds nuw %struct.pg_conn, ptr %24, i32 0, i32 122
  %26 = load i32, ptr %25, align 8
  %27 = sext i32 %26 to i64
  %28 = getelementptr inbounds i8, ptr %23, i64 %27
  call void @llvm.memcpy.p0.p0.i64(ptr align 1 %28, ptr align 4 %4, i64 4, i1 false)
  call void @llvm.lifetime.end.p0(i64 4, ptr %4) #10
  br label %29

29:                                               ; preds = %11, %1
  %30 = load ptr, ptr %3, align 8
  %31 = getelementptr inbounds nuw %struct.pg_conn, ptr %30, i32 0, i32 44
  %32 = load ptr, ptr %31, align 8
  %33 = icmp ne ptr %32, null
  br i1 %33, label %34, label %63

34:                                               ; preds = %29
  %35 = load ptr, ptr %3, align 8
  %36 = getelementptr inbounds nuw %struct.pg_conn, ptr %35, i32 0, i32 121
  %37 = load i32, ptr %36, align 4
  %38 = load ptr, ptr %3, align 8
  %39 = getelementptr inbounds nuw %struct.pg_conn, ptr %38, i32 0, i32 122
  %40 = load i32, ptr %39, align 8
  %41 = icmp slt i32 %37, %40
  br i1 %41, label %42, label %52

42:                                               ; preds = %34
  %43 = load ptr, ptr %3, align 8
  %44 = load ptr, ptr %3, align 8
  %45 = getelementptr inbounds nuw %struct.pg_conn, ptr %44, i32 0, i32 119
  %46 = load ptr, ptr %45, align 8
  %47 = load ptr, ptr %3, align 8
  %48 = getelementptr inbounds nuw %struct.pg_conn, ptr %47, i32 0, i32 121
  %49 = load i32, ptr %48, align 4
  %50 = sext i32 %49 to i64
  %51 = getelementptr inbounds i8, ptr %46, i64 %50
  call void @pqTraceOutputMessage(ptr noundef %43, ptr noundef %51, i1 noundef zeroext true)
  br label %62

52:                                               ; preds = %34
  %53 = load ptr, ptr %3, align 8
  %54 = load ptr, ptr %3, align 8
  %55 = getelementptr inbounds nuw %struct.pg_conn, ptr %54, i32 0, i32 119
  %56 = load ptr, ptr %55, align 8
  %57 = load ptr, ptr %3, align 8
  %58 = getelementptr inbounds nuw %struct.pg_conn, ptr %57, i32 0, i32 122
  %59 = load i32, ptr %58, align 8
  %60 = sext i32 %59 to i64
  %61 = getelementptr inbounds i8, ptr %56, i64 %60
  call void @pqTraceOutputNoTypeByteMessage(ptr noundef %53, ptr noundef %61)
  br label %62

62:                                               ; preds = %52, %42
  br label %63

63:                                               ; preds = %62, %29
  %64 = load ptr, ptr %3, align 8
  %65 = getelementptr inbounds nuw %struct.pg_conn, ptr %64, i32 0, i32 123
  %66 = load i32, ptr %65, align 4
  %67 = load ptr, ptr %3, align 8
  %68 = getelementptr inbounds nuw %struct.pg_conn, ptr %67, i32 0, i32 121
  store i32 %66, ptr %68, align 4
  %69 = load ptr, ptr %3, align 8
  %70 = getelementptr inbounds nuw %struct.pg_conn, ptr %69, i32 0, i32 121
  %71 = load i32, ptr %70, align 4
  %72 = icmp sge i32 %71, 8192
  br i1 %72, label %73, label %91

73:                                               ; preds = %63
  call void @llvm.lifetime.start.p0(i64 4, ptr %5) #10
  %74 = load ptr, ptr %3, align 8
  %75 = getelementptr inbounds nuw %struct.pg_conn, ptr %74, i32 0, i32 121
  %76 = load i32, ptr %75, align 4
  %77 = load ptr, ptr %3, align 8
  %78 = getelementptr inbounds nuw %struct.pg_conn, ptr %77, i32 0, i32 121
  %79 = load i32, ptr %78, align 4
  %80 = srem i32 %79, 8192
  %81 = sub i32 %76, %80
  store i32 %81, ptr %5, align 4
  %82 = load ptr, ptr %3, align 8
  %83 = load i32, ptr %5, align 4
  %84 = call i32 @pqSendSome(ptr noundef %82, i32 noundef %83)
  %85 = icmp slt i32 %84, 0
  br i1 %85, label %86, label %87

86:                                               ; preds = %73
  store i32 -1, ptr %2, align 4
  store i32 1, ptr %6, align 4
  br label %88

87:                                               ; preds = %73
  store i32 0, ptr %6, align 4
  br label %88

88:                                               ; preds = %87, %86
  call void @llvm.lifetime.end.p0(i64 4, ptr %5) #10
  %89 = load i32, ptr %6, align 4
  switch i32 %89, label %94 [
    i32 0, label %90
    i32 1, label %92
  ]

90:                                               ; preds = %88
  br label %91

91:                                               ; preds = %90, %63
  store i32 0, ptr %2, align 4
  br label %92

92:                                               ; preds = %91, %88
  %93 = load i32, ptr %2, align 4
  ret i32 %93

94:                                               ; preds = %88
  unreachable
}