; Function Attrs: nounwind uwtable
define range(i32 -1, 1) i32 @pqPutMsgEnd(ptr noundef %0) local_unnamed_addr #2 {
  %2 = getelementptr inbounds nuw i8, ptr %0, i64 1040
  %3 = load i32, ptr %2, align 8
  %4 = icmp sgt i32 %3, -1
  br i1 %4, label %5, label %14

5:                                                ; preds = %1
  %6 = getelementptr inbounds nuw i8, ptr %0, i64 1044
  %7 = load i32, ptr %6, align 4
  %8 = sub i32 %7, %3
  %9 = tail call i32 @llvm.bswap.i32(i32 %8)
  %10 = getelementptr inbounds nuw i8, ptr %0, i64 1024
  %11 = load ptr, ptr %10, align 8
  %12 = zext nneg i32 %3 to i64
  %13 = getelementptr inbounds nuw i8, ptr %11, i64 %12
  store i32 %9, ptr %13, align 1
  br label %14

14:                                               ; preds = %5, %1
  %15 = getelementptr inbounds nuw i8, ptr %0, i64 352
  %16 = load ptr, ptr %15, align 8
  %.not = icmp eq ptr %16, null
  br i1 %.not, label %30, label %17

17:                                               ; preds = %14
  %18 = getelementptr inbounds nuw i8, ptr %0, i64 1036
  %19 = load i32, ptr %18, align 4
  %20 = load i32, ptr %2, align 8
  %21 = icmp slt i32 %19, %20
  %22 = getelementptr inbounds nuw i8, ptr %0, i64 1024
  %23 = load ptr, ptr %22, align 8
  br i1 %21, label %24, label %27

24:                                               ; preds = %17
  %25 = sext i32 %19 to i64
  %26 = getelementptr inbounds i8, ptr %23, i64 %25
  tail call void @pqTraceOutputMessage(ptr noundef nonnull %0, ptr noundef %26, i1 noundef zeroext true) #19
  br label %30

27:                                               ; preds = %17
  %28 = sext i32 %20 to i64
  %29 = getelementptr inbounds i8, ptr %23, i64 %28
  tail call void @pqTraceOutputNoTypeByteMessage(ptr noundef nonnull %0, ptr noundef %29) #19
  br label %30

30:                                               ; preds = %24, %27, %14
  %31 = getelementptr inbounds nuw i8, ptr %0, i64 1044
  %32 = load i32, ptr %31, align 4
  %33 = getelementptr inbounds nuw i8, ptr %0, i64 1036
  store i32 %32, ptr %33, align 4
  %34 = icmp sgt i32 %32, 8191
  br i1 %34, label %35, label %39

35:                                               ; preds = %30
  %36 = and i32 %32, 2147475456
  %37 = tail call fastcc i32 @pqSendSome(ptr noundef nonnull %0, i32 noundef %36)
  %38 = icmp sgt i32 %37, -1
  br i1 %38, label %39, label %40

39:                                               ; preds = %35, %30
  br label %40

40:                                               ; preds = %35, %39
  %.1 = phi i32 [ -1, %35 ], [ 0, %39 ]
  ret i32 %.1
}